(dp0
S'oxexoeeox'
p1
(dp2
S'total'
p3
I1
sS'0,2'
p4
I1
ssS'eeeeeeeoe'
p5
(dp6
S'0,2'
p7
I1
sS'0,1'
p8
I2
sS'0,0'
p9
I1
sS'1,1'
p10
I6
sS'total'
p11
I11
sS'2,2'
p12
I1
ssS'oeexoeeex'
p13
(dp14
S'total'
p15
I1
sS'0,2'
p16
I1
ssS'eeeeeeeox'
p17
(dp18
S'total'
p19
I1
sS'0,2'
p20
I1
ssS'exeeeoeee'
p21
(dp22
g11
I1
sS'1,1'
p23
I1
ssS'eeeexeeeo'
p24
(dp25
g11
I1
sS'1,2'
p26
I1
ssS'eeeoxxoox'
p27
(dp28
g15
I1
sS'0,0'
p29
I1
ssS'xeeeeeooe'
p30
(dp31
g11
I1
sS'2,2'
p32
I1
ssS'eooexxeoe'
p33
(dp34
S'total'
p35
I1
sS'1,0'
p36
I1
ssS'xeoeeeoox'
p37
(dp38
g11
I1
sS'1,1'
p39
I1
ssS'oxoexeeox'
p40
(dp41
g19
I1
sS'2,0'
p42
I1
ssS'eeeexeoox'
p43
(dp44
g15
I1
sS'1,2'
p45
I1
ssS'oeeoxxxoo'
p46
(dp47
g19
I1
sS'0,2'
p48
I1
ssS'exoexoeox'
p49
(dp50
g11
I1
sS'0,0'
p51
I1
ssS'xeoeoeeee'
p52
(dp53
g15
I1
sS'1,0'
p54
I1
ssS'eeoexexoo'
p55
(dp56
S'total'
p57
I1
sS'1,2'
p58
I1
ssS'xxeoeeeoo'
p59
(dp60
g11
I1
sS'0,2'
p61
I1
ssS'eeeexoeee'
p62
(dp63
g15
I1
sS'2,2'
p64
I1
ssS'xoxeoeoxo'
p65
(dp66
g15
I4
sS'1,2'
p67
I2
sS'1,0'
p68
I2
ssS'oeeexeeoe'
p69
(dp70
g11
I1
sS'1,0'
p71
I1
ssS'oxoxxeoox'
p72
(dp73
g19
I1
sS'1,2'
p74
I1
ssS'eooexeeex'
p75
(dp76
S'total'
p77
I1
sS'0,0'
p78
I1
ssS'exeooxoox'
p79
(dp80
g11
I1
sS'0,2'
p81
I1
ssS'oeexxeeoe'
p82
(dp83
g15
I1
sS'1,2'
p84
I1
ssS'oeexxeeoo'
p85
(dp86
g11
I1
sS'1,2'
p87
I1
ssS'eoeoxeeex'
p88
(dp89
g15
I1
sS'0,0'
p90
I1
ssS'eeoeeeeox'
p91
(dp92
g19
I1
sS'1,1'
p93
I1
ssS'exeoeeeoe'
p94
(dp95
g11
I1
sS'0,0'
p96
I1
ssS'eeeeoeexe'
p97
(dp98
g11
I5
sS'2,0'
p99
I5
ssS'eeoexeeee'
p100
(dp101
g57
I2
sS'0,0'
p102
I2
ssS'eeexoeeee'
p103
(dp104
g15
I1
sS'0,0'
p105
I1
ssS'eoeeoexxe'
p106
(dp107
g11
I1
sS'2,2'
p108
I1
ssS'exeeeeooe'
p109
(dp110
g11
I1
sS'2,2'
p111
I1
ssS'eoeexxeeo'
p112
(dp113
g11
I1
sS'1,0'
p114
I1
ssS'eexeoeoxo'
p115
(dp116
g15
I4
sS'0,0'
p117
I4
ssS'eoeexoeex'
p118
(dp119
g15
I1
sS'0,0'
p120
I1
ssS'eexeoeoxe'
p121
(dp122
g15
I4
sS'2,2'
p123
I4
ssS'losses'
p124
I29
sS'xeoexeoee'
p125
(dp126
g15
I2
sS'2,2'
p127
I2
ssS'eoxoxeoox'
p128
(dp129
g11
I1
sS'0,0'
p130
I1
ssS'games'
p131
I36
sS'oeeexeeee'
p132
(dp133
g15
I1
sS'1,0'
p134
I1
ssS'xoxxoeoxo'
p135
(dp136
g15
I2
sS'1,2'
p137
I2
ssS'xoxeoxoxo'
p138
(dp139
g15
I2
sS'1,0'
p140
I2
ssS'eoeexeeee'
p141
(dp142
g57
I2
sS'2,2'
p143
I2
ssS'xeoexeeoe'
p144
(dp145
g57
I1
sS'2,2'
p146
I1
ssS'oeoexeeox'
p147
(dp148
g19
I1
sS'0,1'
p149
I1
ssS'xeeooxoee'
p150
(dp151
g15
I1
sS'0,2'
p152
I1
ssS'eeeexoxoo'
p153
(dp154
g11
I1
sS'0,2'
p155
I1
ssS'exeexoeoe'
p156
(dp157
g11
I1
sS'2,2'
p158
I1
ssS'eeeeoeoxe'
p159
(dp160
g15
I4
sS'0,2'
p161
I4
ssS'eeoexeeox'
p162
(dp163
g19
I1
sS'0,0'
p164
I1
ssS'oeoxoexex'
p165
(dp166
g15
I1
sS'0,1'
p167
I1
ssS'exxoeoeoe'
p168
(dp169
g11
I1
sS'0,0'
p170
I1
ssS'eeeeooxee'
p171
(dp172
g15
I1
sS'1,0'
p173
I1
ssS'eeeoxeeee'
p174
(dp175
g15
I1
sS'2,2'
p176
I1
ssS'eexoxeooe'
p177
(dp178
g11
I1
sS'2,2'
p179
I1
ssS'eeexeeeoe'
p180
(dp181
g3
I1
sS'1,1'
p182
I1
ssS'exeeoeoox'
p183
(dp184
g11
I1
sS'1,2'
p185
I1
ssS'oeeoxxeoe'
p186
(dp187
g19
I1
sS'2,0'
p188
I1
ssS'xexeoeoxo'
p189
(dp190
g15
I4
sS'0,1'
p191
I4
ssS'oxoxoxeox'
p192
(dp193
g3
I1
sS'2,0'
p194
I1
ssS'eooexxxoo'
p195
(dp196
g57
I1
sS'1,0'
p197
I1
ssS'eoeexeeoe'
p198
(dp199
g35
I1
sS'1,2'
p200
I1
ssS'eeeeoexeo'
p201
(dp202
g15
I1
sS'0,0'
p203
I1
ssS'xeoexoeee'
p204
(dp205
g15
I1
sS'2,2'
p206
I1
ssS'eeeeeeeee'
p207
(dp208
S'0,1'
p209
I1
sS'0,0'
p210
I1
sS'1,1'
p211
I16
sg11
I22
sS'2,1'
p212
I3
sS'2,2'
p213
I1
ssS'xoeeoexeo'
p214
(dp215
g15
I1
sS'1,0'
p216
I1
ssS'eeexxooee'
p217
(dp218
g15
I1
sS'2,2'
p219
I1
ssS'exexoeeoe'
p220
(dp221
g3
I1
sS'0,0'
p222
I1
ssS'xeoxoeeoe'
p223
(dp224
g15
I1
sS'2,0'
p225
I1
ssS'eeeexeoee'
p226
(dp227
g15
I2
sS'1,0'
p228
I1
sS'0,0'
p229
I1
ssS'eoeexeeox'
p230
(dp231
g57
I1
sS'0,0'
p232
I1
ssS'xexooxooe'
p233
(dp234
g15
I1
sS'0,1'
p235
I1
ssS'eeeoxeeoe'
p236
(dp237
g11
I2
sS'1,2'
p238
I1
sS'0,2'
p239
I1
ssS'eeeexeeoe'
p240
(dp241
g15
I1
sS'2,2'
p242
I1
ssS'eeexooxeo'
p243
(dp244
g15
I1
sS'0,0'
p245
I1
ssS'eeeexeeoo'
p246
(dp247
g11
I2
sS'2,0'
p248
I2
ssS'eeeeoeeee'
p249
(dp250
g15
I8
sS'2,1'
p251
I4
sS'2,0'
p252
I2
sS'0,0'
p253
I2
ssS'xeeeeeoee'
p254
(dp255
g15
I1
sS'1,1'
p256
I1
ssS'eeeoeeeex'
p257
(dp258
g57
I1
sS'1,1'
p259
I1
ssS'ties'
p260
I5
sS'xeeooeeee'
p261
(dp262
g15
I1
sS'1,2'
p263
I1
ssS'wins'
p264
I2
sS'oxoexeoox'
p265
(dp266
g19
I1
sS'1,0'
p267
I1
ssS'eeeoxoeex'
p268
(dp269
g57
I1
sS'0,0'
p270
I1
ssS'eeexxooox'
p271
(dp272
g15
I1
sS'0,0'
p273
I1
ssS'eexoeeeoe'
p274
(dp275
g11
I1
sS'0,1'
p276
I1
ss.